target datalayout = "e-m:e-p270:32:32-p271:32:32-p272:64:64-i64:64-i128:128-f80:128-n8:16:32:64-S128"
target triple = "x86_64-pc-linux-gnu"

; Function Attrs: cold nounwind optsize uwtable
define void @ff_mpeg1_init_uni_ac_vlc(ptr noundef %0, ptr noundef %1, ptr noundef %2, ptr noundef %3) #0 {
  %5 = alloca ptr, align 8
  %6 = alloca ptr, align 8
  %7 = alloca ptr, align 8
  %8 = alloca ptr, align 8
  %9 = alloca i32, align 4
  %10 = alloca i32, align 4
  %11 = alloca i32, align 4
  %12 = alloca i32, align 4
  %13 = alloca i32, align 4
  %14 = alloca i32, align 4
  %15 = alloca i32, align 4
  store ptr %0, ptr %5, align 8, !tbaa !4
  store ptr %1, ptr %6, align 8, !tbaa !4
  store ptr %2, ptr %7, align 8, !tbaa !9
  store ptr %3, ptr %8, align 8, !tbaa !4
  call void @llvm.lifetime.start.p0(i64 4, ptr %9) #13
  store i32 0, ptr %9, align 4, !tbaa !11
  br label %16

16:                                               ; preds = %103, %4
  %17 = load i32, ptr %9, align 4, !tbaa !11
  %18 = icmp slt i32 %17, 128
  br i1 %18, label %19, label %106

19:                                               ; preds = %16
  call void @llvm.lifetime.start.p0(i64 4, ptr %10) #13
  %20 = load i32, ptr %9, align 4, !tbaa !11
  %21 = sub nsw i32 %20, 64
  store i32 %21, ptr %10, align 4, !tbaa !11
  call void @llvm.lifetime.start.p0(i64 4, ptr %11) #13
  %22 = load i32, ptr %10, align 4, !tbaa !11
  %23 = icmp ne i32 %22, 0
  br i1 %23, label %25, label %24

24:                                               ; preds = %19
  store i32 4, ptr %12, align 4
  br label %100

25:                                               ; preds = %19
  store i32 0, ptr %11, align 4, !tbaa !11
  br label %26

26:                                               ; preds = %96, %25
  %27 = load i32, ptr %11, align 4, !tbaa !11
  %28 = icmp slt i32 %27, 64
  br i1 %28, label %29, label %99

29:                                               ; preds = %26
  call void @llvm.lifetime.start.p0(i64 4, ptr %13) #13
  call void @llvm.lifetime.start.p0(i64 4, ptr %14) #13
  call void @llvm.lifetime.start.p0(i64 4, ptr %15) #13
  %30 = load i32, ptr %10, align 4, !tbaa !11
  %31 = icmp sge i32 %30, 0
  br i1 %31, label %32, label %34

32:                                               ; preds = %29
  %33 = load i32, ptr %10, align 4, !tbaa !11
  br label %37

34:                                               ; preds = %29
  %35 = load i32, ptr %10, align 4, !tbaa !11
  %36 = sub nsw i32 0, %35
  br label %37

37:                                               ; preds = %34, %32
  %38 = phi i32 [ %33, %32 ], [ %36, %34 ]
  store i32 %38, ptr %15, align 4, !tbaa !11
  %39 = load i32, ptr %15, align 4, !tbaa !11
  %40 = load ptr, ptr %5, align 8, !tbaa !4
  %41 = load i32, ptr %11, align 4, !tbaa !11
  %42 = sext i32 %41 to i64
  %43 = getelementptr inbounds i8, ptr %40, i64 %42
  %44 = load i8, ptr %43, align 1, !tbaa !13
  %45 = sext i8 %44 to i32
  %46 = icmp sgt i32 %39, %45
  br i1 %46, label %47, label %48

47:                                               ; preds = %37
  store i32 111, ptr %14, align 4, !tbaa !11
  br label %58

48:                                               ; preds = %37
  %49 = load ptr, ptr %6, align 8, !tbaa !4
  %50 = load i32, ptr %11, align 4, !tbaa !11
  %51 = sext i32 %50 to i64
  %52 = getelementptr inbounds i8, ptr %49, i64 %51
  %53 = load i8, ptr %52, align 1, !tbaa !13
  %54 = zext i8 %53 to i32
  %55 = load i32, ptr %15, align 4, !tbaa !11
  %56 = add nsw i32 %54, %55
  %57 = sub nsw i32 %56, 1
  store i32 %57, ptr %14, align 4, !tbaa !11
  br label %58

58:                                               ; preds = %48, %47
  %59 = load i32, ptr %14, align 4, !tbaa !11
  %60 = icmp slt i32 %59, 111
  br i1 %60, label %61, label %70

61:                                               ; preds = %58
  %62 = load ptr, ptr %7, align 8, !tbaa !9
  %63 = load i32, ptr %14, align 4, !tbaa !11
  %64 = sext i32 %63 to i64
  %65 = getelementptr inbounds [2 x i16], ptr %62, i64 %64
  %66 = getelementptr inbounds [2 x i16], ptr %65, i64 0, i64 1
  %67 = load i16, ptr %66, align 2, !tbaa !14
  %68 = zext i16 %67 to i32
  %69 = add nsw i32 %68, 1
  store i32 %69, ptr %13, align 4, !tbaa !11
  br label %86

70:                                               ; preds = %58
  %71 = load ptr, ptr %7, align 8, !tbaa !9
  %72 = getelementptr inbounds [2 x i16], ptr %71, i64 111
  %73 = getelementptr inbounds [2 x i16], ptr %72, i64 0, i64 1
  %74 = load i16, ptr %73, align 2, !tbaa !14
  %75 = zext i16 %74 to i32
  %76 = add nsw i32 %75, 6
  store i32 %76, ptr %13, align 4, !tbaa !11
  %77 = load i32, ptr %15, align 4, !tbaa !11
  %78 = icmp slt i32 %77, 128
  br i1 %78, label %79, label %82

79:                                               ; preds = %70
  %80 = load i32, ptr %13, align 4, !tbaa !11
  %81 = add nsw i32 %80, 8
  store i32 %81, ptr %13, align 4, !tbaa !11
  br label %85

82:                                               ; preds = %70
  %83 = load i32, ptr %13, align 4, !tbaa !11
  %84 = add nsw i32 %83, 16
  store i32 %84, ptr %13, align 4, !tbaa !11
  br label %85

85:                                               ; preds = %82, %79
  br label %86

86:                                               ; preds = %85, %61
  %87 = load i32, ptr %13, align 4, !tbaa !11
  %88 = trunc i32 %87 to i8
  %89 = load ptr, ptr %8, align 8, !tbaa !4
  %90 = load i32, ptr %11, align 4, !tbaa !11
  %91 = mul nsw i32 %90, 128
  %92 = load i32, ptr %9, align 4, !tbaa !11
  %93 = add nsw i32 %91, %92
  %94 = sext i32 %93 to i64
  %95 = getelementptr inbounds i8, ptr %89, i64 %94
  store i8 %88, ptr %95, align 1, !tbaa !13
  call void @llvm.lifetime.end.p0(i64 4, ptr %15) #13
  call void @llvm.lifetime.end.p0(i64 4, ptr %14) #13
  call void @llvm.lifetime.end.p0(i64 4, ptr %13) #13
  br label %96

96:                                               ; preds = %86
  %97 = load i32, ptr %11, align 4, !tbaa !11
  %98 = add nsw i32 %97, 1
  store i32 %98, ptr %11, align 4, !tbaa !11
  br label %26, !llvm.loop !16

99:                                               ; preds = %26
  store i32 0, ptr %12, align 4
  br label %100

100:                                              ; preds = %99, %24
  call void @llvm.lifetime.end.p0(i64 4, ptr %11) #13
  call void @llvm.lifetime.end.p0(i64 4, ptr %10) #13
  %101 = load i32, ptr %12, align 4
  switch i32 %101, label %107 [
    i32 0, label %102
    i32 4, label %103
  ]

102:                                              ; preds = %100
  br label %103

103:                                              ; preds = %102, %100
  %104 = load i32, ptr %9, align 4, !tbaa !11
  %105 = add nsw i32 %104, 1
  store i32 %105, ptr %9, align 4, !tbaa !11
  br label %16, !llvm.loop !18

106:                                              ; preds = %16
  call void @llvm.lifetime.end.p0(i64 4, ptr %9) #13
  ret void

107:                                              ; preds = %100
  unreachable
}