; Function Attrs: cold nofree norecurse nosync nounwind optsize memory(argmem: readwrite) uwtable
define void @ff_mpeg1_init_uni_ac_vlc(ptr noundef readonly captures(none) %0, ptr noundef readonly captures(none) %1, ptr noundef readonly captures(none) %2, ptr noundef writeonly captures(none) %3) local_unnamed_addr #0 {
  %5 = getelementptr inbounds nuw i8, ptr %2, i64 446
  br label %6

6:                                                ; preds = %4, %.loopexit
  %indvars.iv35 = phi i64 [ 0, %4 ], [ %indvars.iv.next36, %.loopexit ]
  %7 = icmp eq i64 %indvars.iv35, 64
  br i1 %7, label %.loopexit, label %.preheader

.preheader:                                       ; preds = %6
  %indvars37 = trunc i64 %indvars.iv35 to i32
  %8 = add nsw i32 %indvars37, -64
  %9 = icmp samesign ult i64 %indvars.iv35, 64
  %10 = trunc i64 %indvars.iv35 to i32
  %11 = sub i32 64, %10
  %12 = select i1 %9, i32 %11, i32 %8
  %invariant.op = add i32 %12, -1
  %13 = icmp slt i32 %12, 128
  %invariant.gep = getelementptr inbounds nuw i8, ptr %3, i64 %indvars.iv35
  br label %14

14:                                               ; preds = %.preheader, %38
  %indvars.iv = phi i64 [ 0, %.preheader ], [ %indvars.iv.next, %38 ]
  %15 = getelementptr inbounds nuw i8, ptr %0, i64 %indvars.iv
  %16 = load i8, ptr %15, align 1, !tbaa !4
  %17 = sext i8 %16 to i32
  %18 = icmp sgt i32 %12, %17
  br i1 %18, label %31, label %19

19:                                               ; preds = %14
  %20 = getelementptr inbounds nuw i8, ptr %1, i64 %indvars.iv
  %21 = load i8, ptr %20, align 1, !tbaa !4
  %22 = zext i8 %21 to i32
  %23 = add nsw i32 %12, %22
  %24 = icmp slt i32 %23, 112
  br i1 %24, label %26, label %.thread31

.thread31:                                        ; preds = %19
  %25 = load i16, ptr %5, align 2, !tbaa !7
  br label %33

26:                                               ; preds = %19
  %.reass = add i32 %invariant.op, %22
  %27 = sext i32 %.reass to i64
  %28 = getelementptr inbounds [2 x i16], ptr %2, i64 %27, i64 1
  %29 = load i16, ptr %28, align 2, !tbaa !7
  %30 = add i16 %29, 1
  br label %38

31:                                               ; preds = %14
  %32 = load i16, ptr %5, align 2, !tbaa !7
  br i1 %13, label %33, label %36

33:                                               ; preds = %.thread31, %31
  %34 = phi i16 [ %25, %.thread31 ], [ %32, %31 ]
  %35 = add i16 %34, 14
  br label %38

36:                                               ; preds = %31
  %37 = add i16 %32, 22
  br label %38

38:                                               ; preds = %33, %36, %26
  %.026 = phi i16 [ %30, %26 ], [ %35, %33 ], [ %37, %36 ]
  %39 = trunc i16 %.026 to i8
  %40 = shl nuw nsw i64 %indvars.iv, 7
  %gep = getelementptr inbounds nuw i8, ptr %invariant.gep, i64 %40
  store i8 %39, ptr %gep, align 1, !tbaa !4
  %indvars.iv.next = add nuw nsw i64 %indvars.iv, 1
  %exitcond.not = icmp eq i64 %indvars.iv.next, 64
  br i1 %exitcond.not, label %.loopexit, label %14, !llvm.loop !9

.loopexit:                                        ; preds = %38, %6
  %indvars.iv.next36 = add nuw nsw i64 %indvars.iv35, 1
  %exitcond38.not = icmp eq i64 %indvars.iv.next36, 128
  br i1 %exitcond38.not, label %41, label %6, !llvm.loop !11

41:                                               ; preds = %.loopexit
  ret void
}